; Function Attrs: nounwind uwtable
define void @Ree_CollectInsiders_rec(ptr noundef %0, i32 noundef %1, ptr noundef %2, ptr noundef %3) local_unnamed_addr #4 {
  %5 = getelementptr i8, ptr %2, i64 8
  %.val18 = load ptr, ptr %5, align 8, !tbaa !89
  %6 = ashr i32 %1, 5
  %7 = sext i32 %6 to i64
  %8 = getelementptr inbounds i32, ptr %.val18, i64 %7
  %9 = load i32, ptr %8, align 4, !tbaa !17
  %10 = and i32 %1, 31
  %11 = shl nuw i32 1, %10
  %12 = and i32 %9, %11
  %.not = icmp eq i32 %12, 0
  br i1 %.not, label %13, label %common.ret22

common.ret22:                                     ; preds = %4, %13
  ret void

13:                                               ; preds = %4
  tail call fastcc void @Vec_BitSetEntry(ptr noundef nonnull %2, i32 noundef %1)
  %14 = getelementptr i8, ptr %0, i64 32
  %.val17 = load ptr, ptr %14, align 8, !tbaa !31
  %15 = sext i32 %1 to i64
  %16 = getelementptr inbounds %struct.Gia_Obj_t_, ptr %.val17, i64 %15
  %.val3.i = load i64, ptr %16, align 4
  %17 = trunc i64 %.val3.i to i32
  %18 = and i32 %17, 536870911
  %19 = sub nsw i32 %1, %18
  tail call void @Ree_CollectInsiders_rec(ptr noundef %0, i32 noundef %19, ptr noundef nonnull %2, ptr noundef %3)
  %.val = load ptr, ptr %14, align 8, !tbaa !31
  %20 = getelementptr inbounds %struct.Gia_Obj_t_, ptr %.val, i64 %15
  %.val3.i21 = load i64, ptr %20, align 4
  %21 = lshr i64 %.val3.i21, 32
  %22 = trunc nuw i64 %21 to i32
  %23 = and i32 %22, 536870911
  %24 = sub nsw i32 %1, %23
  tail call void @Ree_CollectInsiders_rec(ptr noundef %0, i32 noundef %24, ptr noundef nonnull %2, ptr noundef %3)
  tail call fastcc void @Vec_BitSetEntry(ptr noundef %3, i32 noundef %1)
  br label %common.ret22
}